; Function Attrs: mustprogress uwtable
define noundef nonnull ptr @_ZNK5Ipopt17SumSymMatrixSpace16MakeNewSymMatrixEv(ptr noundef nonnull align 8 dereferenceable(48) %0) unnamed_addr #0 align 2 personality ptr @__gxx_personality_v0 {
  %2 = tail call noalias noundef nonnull dereferenceable(136) ptr @_Znwm(i64 noundef 136) #22
  invoke void @_ZN5Ipopt12SumSymMatrixC1EPKNS_17SumSymMatrixSpaceE(ptr noundef nonnull align 8 dereferenceable(136) %2, ptr noundef nonnull align 8 dereferenceable(48) %0)
          to label %_ZNK5Ipopt17SumSymMatrixSpace19MakeNewSumSymMatrixEv.exit unwind label %3

3:                                                ; preds = %1
  %4 = landingpad { ptr, i32 }
          cleanup
  tail call void @_ZdlPvm(ptr noundef nonnull %2, i64 noundef 136) #23
  resume { ptr, i32 } %4

_ZNK5Ipopt17SumSymMatrixSpace19MakeNewSumSymMatrixEv.exit: ; preds = %1
  ret ptr %2
}